target datalayout = "e-m:e-p270:32:32-p271:32:32-p272:64:64-i64:64-i128:128-f80:128-n8:16:32:64-S128"
target triple = "x86_64-pc-linux-gnu"

%"class.std::__cxx11::list.19" = type { %"class.std::__cxx11::_List_base.20" }
%"class.std::__cxx11::_List_base.20" = type { %"struct.std::__cxx11::_List_base<int, std::allocator<int>>::_List_impl" }
%"struct.std::__cxx11::_List_base<int, std::allocator<int>>::_List_impl" = type { %"struct.std::__detail::_List_node_header" }
%"struct.std::__detail::_List_node_header" = type { %"struct.std::__detail::_List_node_base", i64 }
%"struct.std::__detail::_List_node_base" = type { ptr, ptr }
%class.SdfGpuPlugin = type { %class.QObject, %class.FilterPlugin.base, i32, i32, i32, ptr, ptr, ptr, ptr, ptr, [3 x ptr], [3 x ptr], [3 x ptr], i32, float, float, float, float, float, ptr, ptr, ptr, i8, i8, i32, i32, i32, i32, i8, [3 x i8], %"class.vcg::tri::TriMesh<vcg::vertex::vector_ocf<CVertexO>, vcg::face::vector_ocf<CFaceO>>::PerFaceAttributeHandle", %"class.vcg::tri::TriMesh<vcg::vertex::vector_ocf<CVertexO>, vcg::face::vector_ocf<CFaceO>>::PerVertexAttributeHandle", %class.MeshLabPlugin, %class.MeshLabPluginLogger }
%class.QObject = type { ptr, %class.QScopedPointer }
%class.QScopedPointer = type { ptr }
%class.FilterPlugin.base = type { ptr, ptr, %"class.std::__cxx11::list", %"class.std::__cxx11::list.19" }
%"class.std::__cxx11::list" = type { %"class.std::__cxx11::_List_base" }
%"class.std::__cxx11::_List_base" = type { %"struct.std::__cxx11::_List_base<QAction *, std::allocator<QAction *>>::_List_impl" }
%"struct.std::__cxx11::_List_base<QAction *, std::allocator<QAction *>>::_List_impl" = type { %"struct.std::__detail::_List_node_header" }
%"class.vcg::tri::TriMesh<vcg::vertex::vector_ocf<CVertexO>, vcg::face::vector_ocf<CFaceO>>::PerFaceAttributeHandle" = type { %"class.vcg::tri::TriMesh<vcg::vertex::vector_ocf<CVertexO>, vcg::face::vector_ocf<CFaceO>>::AttributeHandle.base", [4 x i8] }
%"class.vcg::tri::TriMesh<vcg::vertex::vector_ocf<CVertexO>, vcg::face::vector_ocf<CFaceO>>::AttributeHandle.base" = type <{ ptr, i32 }>
%"class.vcg::tri::TriMesh<vcg::vertex::vector_ocf<CVertexO>, vcg::face::vector_ocf<CFaceO>>::PerVertexAttributeHandle" = type { %"class.vcg::tri::TriMesh<vcg::vertex::vector_ocf<CVertexO>, vcg::face::vector_ocf<CFaceO>>::AttributeHandle.base.25", [4 x i8] }
%"class.vcg::tri::TriMesh<vcg::vertex::vector_ocf<CVertexO>, vcg::face::vector_ocf<CFaceO>>::AttributeHandle.base.25" = type <{ ptr, i32 }>
%class.MeshLabPlugin = type { ptr, i8, %class.QFileInfo }
%class.QFileInfo = type { %class.QSharedDataPointer }
%class.QSharedDataPointer = type { ptr }
%class.MeshLabPluginLogger = type { ptr, ptr }

@__glewEndQueryARB = external global ptr, align 8
@__glewGetQueryObjectuivARB = external global ptr, align 8

; Function Attrs: mustprogress uwtable
define noundef zeroext i1 @_ZN12SdfGpuPlugin10postRenderEj(ptr noundef nonnull align 8 dereferenceable(312) %0, i32 noundef %1) #5 align 2 {
  %3 = alloca i1, align 1
  %4 = alloca ptr, align 8
  %5 = alloca i32, align 4
  store ptr %0, ptr %4, align 8
  store i32 %1, ptr %5, align 4
  %6 = load ptr, ptr %4, align 8
  %7 = load i32, ptr %5, align 4
  %8 = icmp ne i32 %7, 0
  br i1 %8, label %9, label %23

9:                                                ; preds = %2
  %10 = load ptr, ptr @__glewEndQueryARB, align 8
  call void %10(i32 noundef 35092)
  %11 = load ptr, ptr @__glewGetQueryObjectuivARB, align 8
  %12 = getelementptr inbounds %class.SdfGpuPlugin, ptr %6, i32 0, i32 24
  %13 = load i32, ptr %12, align 4
  %14 = getelementptr inbounds %class.SdfGpuPlugin, ptr %6, i32 0, i32 25
  call void %11(i32 noundef %13, i32 noundef 34918, ptr noundef %14)
  %15 = getelementptr inbounds %class.SdfGpuPlugin, ptr %6, i32 0, i32 25
  %16 = load i32, ptr %15, align 8
  %17 = icmp ugt i32 %16, 100
  br i1 %17, label %18, label %22

18:                                               ; preds = %9
  %19 = getelementptr inbounds %class.SdfGpuPlugin, ptr %6, i32 0, i32 26
  %20 = load i32, ptr %19, align 4
  %21 = add i32 %20, 1
  store i32 %21, ptr %19, align 4
  store i1 true, ptr %3, align 1
  br label %24

22:                                               ; preds = %9
  store i1 false, ptr %3, align 1
  br label %24

23:                                               ; preds = %2
  store i1 true, ptr %3, align 1
  br label %24

24:                                               ; preds = %23, %22, %18
  %25 = load i1, ptr %3, align 1
  ret i1 %25
}