; Function Attrs: mustprogress uwtable
define noundef zeroext i1 @_ZN12SdfGpuPlugin10postRenderEj(ptr noundef nonnull align 8 dereferenceable(312) %0, i32 noundef %1) local_unnamed_addr #9 align 2 {
  %.not = icmp eq i32 %1, 0
  br i1 %.not, label %15, label %3

3:                                                ; preds = %2
  %4 = load ptr, ptr @__glewEndQueryARB, align 8
  tail call void %4(i32 noundef 35092)
  %5 = load ptr, ptr @__glewGetQueryObjectuivARB, align 8
  %6 = getelementptr inbounds i8, ptr %0, i64 260
  %7 = load i32, ptr %6, align 4
  %8 = getelementptr inbounds i8, ptr %0, i64 264
  tail call void %5(i32 noundef %7, i32 noundef 34918, ptr noundef nonnull %8)
  %9 = load i32, ptr %8, align 8
  %10 = icmp ugt i32 %9, 100
  br i1 %10, label %11, label %15

11:                                               ; preds = %3
  %12 = getelementptr inbounds i8, ptr %0, i64 268
  %13 = load i32, ptr %12, align 4
  %14 = add i32 %13, 1
  store i32 %14, ptr %12, align 4
  br label %15

15:                                               ; preds = %2, %3, %11
  %.0 = phi i1 [ true, %11 ], [ false, %3 ], [ true, %2 ]
  ret i1 %.0
}